target datalayout = "e-m:e-p270:32:32-p271:32:32-p272:64:64-i64:64-i128:128-f80:128-n8:16:32:64-S128"
target triple = "x86_64-pc-linux-gnu"

%struct._packet_info = type { ptr, ptr, i32, i32, %struct.nstime_t, %struct.nstime_t, %struct.nstime_t, i32, ptr, ptr, ptr, ptr, %struct._address, %struct._address, %struct._address, %struct._address, %struct._address, %struct._address, i32, ptr, i32, %struct.anon, i32, i32, i32, i32, ptr, i32, ptr, ptr, i16, i16, i32, i32, i16, i32, i32, ptr, ptr, ptr, i8, i8, i16, i16, i16, i32, i16, i16, ptr, ptr, ptr, ptr, ptr, i32 }
%struct.nstime_t = type { i64, i32 }
%struct._address = type { i32, i32, ptr, ptr }
%struct.anon = type { i8, [3 x i8] }
%struct.utp_info_t = type { i8, i32, i32, i32, i16, i16, i32, i32, ptr }
%struct.utp_stream_info_t = type { i32, [2 x %struct._utp_flow_t], ptr, ptr }
%struct._utp_flow_t = type { ptr }

@proto_bt_utp = internal global i32 0, align 4
@bt_utp_stream_count = internal global i32 0, align 4

; Function Attrs: nounwind uwtable
define internal i32 @cmp_address(ptr noundef %0, ptr noundef %1) #0 {
  %3 = alloca i32, align 4
  %4 = alloca ptr, align 8
  %5 = alloca ptr, align 8
  store ptr %0, ptr %4, align 8
  store ptr %1, ptr %5, align 8
  %6 = load ptr, ptr %4, align 8
  %7 = getelementptr inbounds %struct._address, ptr %6, i32 0, i32 0
  %8 = load i32, ptr %7, align 8
  %9 = load ptr, ptr %5, align 8
  %10 = getelementptr inbounds %struct._address, ptr %9, i32 0, i32 0
  %11 = load i32, ptr %10, align 8
  %12 = icmp sgt i32 %8, %11
  br i1 %12, label %13, label %14

13:                                               ; preds = %2
  store i32 1, ptr %3, align 4
  br label %59

14:                                               ; preds = %2
  %15 = load ptr, ptr %4, align 8
  %16 = getelementptr inbounds %struct._address, ptr %15, i32 0, i32 0
  %17 = load i32, ptr %16, align 8
  %18 = load ptr, ptr %5, align 8
  %19 = getelementptr inbounds %struct._address, ptr %18, i32 0, i32 0
  %20 = load i32, ptr %19, align 8
  %21 = icmp slt i32 %17, %20
  br i1 %21, label %22, label %23

22:                                               ; preds = %14
  store i32 -1, ptr %3, align 4
  br label %59

23:                                               ; preds = %14
  %24 = load ptr, ptr %4, align 8
  %25 = getelementptr inbounds %struct._address, ptr %24, i32 0, i32 1
  %26 = load i32, ptr %25, align 4
  %27 = load ptr, ptr %5, align 8
  %28 = getelementptr inbounds %struct._address, ptr %27, i32 0, i32 1
  %29 = load i32, ptr %28, align 4
  %30 = icmp sgt i32 %26, %29
  br i1 %30, label %31, label %32

31:                                               ; preds = %23
  store i32 1, ptr %3, align 4
  br label %59

32:                                               ; preds = %23
  %33 = load ptr, ptr %4, align 8
  %34 = getelementptr inbounds %struct._address, ptr %33, i32 0, i32 1
  %35 = load i32, ptr %34, align 4
  %36 = load ptr, ptr %5, align 8
  %37 = getelementptr inbounds %struct._address, ptr %36, i32 0, i32 1
  %38 = load i32, ptr %37, align 4
  %39 = icmp slt i32 %35, %38
  br i1 %39, label %40, label %41

40:                                               ; preds = %32
  store i32 -1, ptr %3, align 4
  br label %59

41:                                               ; preds = %32
  %42 = load ptr, ptr %4, align 8
  %43 = getelementptr inbounds %struct._address, ptr %42, i32 0, i32 1
  %44 = load i32, ptr %43, align 4
  %45 = icmp eq i32 %44, 0
  br i1 %45, label %46, label %47

46:                                               ; preds = %41
  store i32 0, ptr %3, align 4
  br label %59

47:                                               ; preds = %41
  %48 = load ptr, ptr %4, align 8
  %49 = getelementptr inbounds %struct._address, ptr %48, i32 0, i32 2
  %50 = load ptr, ptr %49, align 8
  %51 = load ptr, ptr %5, align 8
  %52 = getelementptr inbounds %struct._address, ptr %51, i32 0, i32 2
  %53 = load ptr, ptr %52, align 8
  %54 = load ptr, ptr %4, align 8
  %55 = getelementptr inbounds %struct._address, ptr %54, i32 0, i32 1
  %56 = load i32, ptr %55, align 4
  %57 = sext i32 %56 to i64
  %58 = call i32 @memcmp(ptr noundef %50, ptr noundef %53, i64 noundef %57) #8
  store i32 %58, ptr %3, align 4
  br label %59

59:                                               ; preds = %47, %46, %40, %31, %22, %13
  %60 = load i32, ptr %3, align 4
  ret i32 %60
}

; Function Attrs: nounwind uwtable
define internal ptr @get_utp_stream_info(ptr noundef %0, ptr noundef %1) #0 {
  %3 = alloca ptr, align 8
  %4 = alloca ptr, align 8
  %5 = alloca ptr, align 8
  %6 = alloca ptr, align 8
  %7 = alloca i32, align 4
  %8 = alloca i32, align 4
  %9 = alloca i32, align 4
  store ptr %0, ptr %3, align 8
  store ptr %1, ptr %4, align 8
  %10 = load ptr, ptr %4, align 8
  %11 = getelementptr inbounds %struct.utp_info_t, ptr %10, i32 0, i32 1
  %12 = load i32, ptr %11, align 4
  %13 = icmp ne i32 %12, 0
  br i1 %13, label %14, label %23

14:                                               ; preds = %2
  %15 = load ptr, ptr %4, align 8
  %16 = getelementptr inbounds %struct.utp_info_t, ptr %15, i32 0, i32 2
  %17 = load i32, ptr %16, align 8
  %18 = add i32 %17, 1
  store i32 %18, ptr %7, align 4
  %19 = load ptr, ptr %4, align 8
  %20 = getelementptr inbounds %struct.utp_info_t, ptr %19, i32 0, i32 2
  %21 = load i32, ptr %20, align 8
  %22 = sub i32 %21, 1
  store i32 %22, ptr %8, align 4
  br label %36

23:                                               ; preds = %2
  %24 = load ptr, ptr %4, align 8
  %25 = getelementptr inbounds %struct.utp_info_t, ptr %24, i32 0, i32 2
  %26 = load i32, ptr %25, align 8
  %27 = add i32 %26, 1
  %28 = trunc i32 %27 to i16
  %29 = zext i16 %28 to i32
  store i32 %29, ptr %7, align 4
  %30 = load ptr, ptr %4, align 8
  %31 = getelementptr inbounds %struct.utp_info_t, ptr %30, i32 0, i32 2
  %32 = load i32, ptr %31, align 8
  %33 = sub i32 %32, 1
  %34 = trunc i32 %33 to i16
  %35 = zext i16 %34 to i32
  store i32 %35, ptr %8, align 4
  br label %36

36:                                               ; preds = %23, %14
  %37 = load ptr, ptr %4, align 8
  %38 = getelementptr inbounds %struct.utp_info_t, ptr %37, i32 0, i32 0
  %39 = load i8, ptr %38, align 8
  %40 = zext i8 %39 to i32
  %41 = icmp eq i32 %40, 4
  br i1 %41, label %42, label %71

42:                                               ; preds = %36
  %43 = load ptr, ptr %3, align 8
  %44 = getelementptr inbounds %struct._packet_info, ptr %43, i32 0, i32 3
  %45 = load i32, ptr %44, align 4
  %46 = load ptr, ptr %3, align 8
  %47 = getelementptr inbounds %struct._packet_info, ptr %46, i32 0, i32 16
  %48 = load ptr, ptr %3, align 8
  %49 = getelementptr inbounds %struct._packet_info, ptr %48, i32 0, i32 17
  %50 = load i32, ptr %7, align 4
  %51 = load ptr, ptr %4, align 8
  %52 = getelementptr inbounds %struct.utp_info_t, ptr %51, i32 0, i32 2
  %53 = load i32, ptr %52, align 8
  %54 = call ptr @find_conversation(i32 noundef %45, ptr noundef %47, ptr noundef %49, i32 noundef 30, i32 noundef %50, i32 noundef %53, i32 noundef 0)
  store ptr %54, ptr %5, align 8
  %55 = load ptr, ptr %5, align 8
  %56 = icmp ne ptr %55, null
  br i1 %56, label %70, label %57

57:                                               ; preds = %42
  %58 = load ptr, ptr %3, align 8
  %59 = getelementptr inbounds %struct._packet_info, ptr %58, i32 0, i32 3
  %60 = load i32, ptr %59, align 4
  %61 = load ptr, ptr %3, align 8
  %62 = getelementptr inbounds %struct._packet_info, ptr %61, i32 0, i32 16
  %63 = load ptr, ptr %3, align 8
  %64 = getelementptr inbounds %struct._packet_info, ptr %63, i32 0, i32 17
  %65 = load i32, ptr %7, align 4
  %66 = load ptr, ptr %4, align 8
  %67 = getelementptr inbounds %struct.utp_info_t, ptr %66, i32 0, i32 2
  %68 = load i32, ptr %67, align 8
  %69 = call nonnull ptr @conversation_new(i32 noundef %60, ptr noundef %62, ptr noundef %64, i32 noundef 30, i32 noundef %65, i32 noundef %68, i32 noundef 0)
  store ptr %69, ptr %5, align 8
  br label %70

70:                                               ; preds = %57, %42
  br label %130

71:                                               ; preds = %36
  %72 = load ptr, ptr %3, align 8
  %73 = getelementptr inbounds %struct._packet_info, ptr %72, i32 0, i32 3
  %74 = load i32, ptr %73, align 4
  %75 = load ptr, ptr %3, align 8
  %76 = getelementptr inbounds %struct._packet_info, ptr %75, i32 0, i32 16
  %77 = load ptr, ptr %3, align 8
  %78 = getelementptr inbounds %struct._packet_info, ptr %77, i32 0, i32 17
  %79 = load ptr, ptr %4, align 8
  %80 = getelementptr inbounds %struct.utp_info_t, ptr %79, i32 0, i32 2
  %81 = load i32, ptr %80, align 8
  %82 = call ptr @find_conversation(i32 noundef %74, ptr noundef %76, ptr noundef %78, i32 noundef 30, i32 noundef %81, i32 noundef 0, i32 noundef 131072)
  store ptr %82, ptr %5, align 8
  %83 = load ptr, ptr %5, align 8
  %84 = icmp ne ptr %83, null
  br i1 %84, label %129, label %85

85:                                               ; preds = %71
  %86 = load ptr, ptr %3, align 8
  %87 = getelementptr inbounds %struct._packet_info, ptr %86, i32 0, i32 3
  %88 = load i32, ptr %87, align 4
  %89 = load ptr, ptr %3, align 8
  %90 = getelementptr inbounds %struct._packet_info, ptr %89, i32 0, i32 16
  %91 = load ptr, ptr %3, align 8
  %92 = getelementptr inbounds %struct._packet_info, ptr %91, i32 0, i32 17
  %93 = load ptr, ptr %4, align 8
  %94 = getelementptr inbounds %struct.utp_info_t, ptr %93, i32 0, i32 2
  %95 = load i32, ptr %94, align 8
  %96 = load i32, ptr %7, align 4
  %97 = call ptr @find_conversation(i32 noundef %88, ptr noundef %90, ptr noundef %92, i32 noundef 30, i32 noundef %95, i32 noundef %96, i32 noundef 0)
  store ptr %97, ptr %5, align 8
  %98 = load ptr, ptr %5, align 8
  %99 = icmp ne ptr %98, null
  br i1 %99, label %128, label %100

100:                                              ; preds = %85
  %101 = load ptr, ptr %3, align 8
  %102 = getelementptr inbounds %struct._packet_info, ptr %101, i32 0, i32 3
  %103 = load i32, ptr %102, align 4
  %104 = load ptr, ptr %3, align 8
  %105 = getelementptr inbounds %struct._packet_info, ptr %104, i32 0, i32 16
  %106 = load ptr, ptr %3, align 8
  %107 = getelementptr inbounds %struct._packet_info, ptr %106, i32 0, i32 17
  %108 = load ptr, ptr %4, align 8
  %109 = getelementptr inbounds %struct.utp_info_t, ptr %108, i32 0, i32 2
  %110 = load i32, ptr %109, align 8
  %111 = load i32, ptr %8, align 4
  %112 = call ptr @find_conversation(i32 noundef %103, ptr noundef %105, ptr noundef %107, i32 noundef 30, i32 noundef %110, i32 noundef %111, i32 noundef 0)
  store ptr %112, ptr %5, align 8
  %113 = load ptr, ptr %5, align 8
  %114 = icmp ne ptr %113, null
  br i1 %114, label %127, label %115

115:                                              ; preds = %100
  %116 = load ptr, ptr %3, align 8
  %117 = getelementptr inbounds %struct._packet_info, ptr %116, i32 0, i32 3
  %118 = load i32, ptr %117, align 4
  %119 = load ptr, ptr %3, align 8
  %120 = getelementptr inbounds %struct._packet_info, ptr %119, i32 0, i32 16
  %121 = load ptr, ptr %3, align 8
  %122 = getelementptr inbounds %struct._packet_info, ptr %121, i32 0, i32 17
  %123 = load ptr, ptr %4, align 8
  %124 = getelementptr inbounds %struct.utp_info_t, ptr %123, i32 0, i32 2
  %125 = load i32, ptr %124, align 8
  %126 = call nonnull ptr @conversation_new(i32 noundef %118, ptr noundef %120, ptr noundef %122, i32 noundef 30, i32 noundef %125, i32 noundef 0, i32 noundef 2)
  store ptr %126, ptr %5, align 8
  br label %127

127:                                              ; preds = %115, %100
  br label %128

128:                                              ; preds = %127, %85
  br label %129

129:                                              ; preds = %128, %71
  br label %130

130:                                              ; preds = %129, %70
  %131 = load ptr, ptr %5, align 8
  %132 = load i32, ptr @proto_bt_utp, align 4
  %133 = call ptr @conversation_get_proto_data(ptr noundef %131, i32 noundef %132)
  store ptr %133, ptr %6, align 8
  %134 = load ptr, ptr %6, align 8
  %135 = icmp ne ptr %134, null
  br i1 %135, label %158, label %136

136:                                              ; preds = %130
  %137 = call ptr @wmem_file_scope()
  %138 = call noalias ptr @wmem_alloc0(ptr noundef %137, i64 noundef 40)
  store ptr %138, ptr %6, align 8
  %139 = load i32, ptr @bt_utp_stream_count, align 4
  %140 = add i32 %139, 1
  store i32 %140, ptr @bt_utp_stream_count, align 4
  %141 = load ptr, ptr %6, align 8
  %142 = getelementptr inbounds %struct.utp_stream_info_t, ptr %141, i32 0, i32 0
  store i32 %139, ptr %142, align 8
  %143 = call ptr @wmem_file_scope()
  %144 = call noalias ptr @wmem_tree_new(ptr noundef %143)
  %145 = load ptr, ptr %6, align 8
  %146 = getelementptr inbounds %struct.utp_stream_info_t, ptr %145, i32 0, i32 1
  %147 = getelementptr [2 x %struct._utp_flow_t], ptr %146, i64 0, i64 0
  %148 = getelementptr inbounds %struct._utp_flow_t, ptr %147, i32 0, i32 0
  store ptr %144, ptr %148, align 8
  %149 = call ptr @wmem_file_scope()
  %150 = call noalias ptr @wmem_tree_new(ptr noundef %149)
  %151 = load ptr, ptr %6, align 8
  %152 = getelementptr inbounds %struct.utp_stream_info_t, ptr %151, i32 0, i32 1
  %153 = getelementptr [2 x %struct._utp_flow_t], ptr %152, i64 0, i64 1
  %154 = getelementptr inbounds %struct._utp_flow_t, ptr %153, i32 0, i32 0
  store ptr %150, ptr %154, align 8
  %155 = load ptr, ptr %5, align 8
  %156 = load i32, ptr @proto_bt_utp, align 4
  %157 = load ptr, ptr %6, align 8
  call void @conversation_add_proto_data(ptr noundef %155, i32 noundef %156, ptr noundef %157)
  br label %158

158:                                              ; preds = %136, %130
  %159 = load ptr, ptr %3, align 8
  %160 = getelementptr inbounds %struct._packet_info, ptr %159, i32 0, i32 16
  %161 = load ptr, ptr %3, align 8
  %162 = getelementptr inbounds %struct._packet_info, ptr %161, i32 0, i32 17
  %163 = call i32 @cmp_address(ptr noundef %160, ptr noundef %162)
  store i32 %163, ptr %9, align 4
  %164 = load i32, ptr %9, align 4
  %165 = icmp eq i32 %164, 0
  br i1 %165, label %166, label %175

166:                                              ; preds = %158
  %167 = load ptr, ptr %3, align 8
  %168 = getelementptr inbounds %struct._packet_info, ptr %167, i32 0, i32 23
  %169 = load i32, ptr %168, align 4
  %170 = load ptr, ptr %3, align 8
  %171 = getelementptr inbounds %struct._packet_info, ptr %170, i32 0, i32 24
  %172 = load i32, ptr %171, align 8
  %173 = icmp ugt i32 %169, %172
  %174 = select i1 %173, i32 1, i32 -1
  store i32 %174, ptr %9, align 4
  br label %175

175:                                              ; preds = %166, %158
  %176 = load i32, ptr %9, align 4
  %177 = icmp sge i32 %176, 0
  br i1 %177, label %178, label %189

178:                                              ; preds = %175
  %179 = load ptr, ptr %6, align 8
  %180 = getelementptr inbounds %struct.utp_stream_info_t, ptr %179, i32 0, i32 1
  %181 = getelementptr [2 x %struct._utp_flow_t], ptr %180, i64 0, i64 0
  %182 = load ptr, ptr %6, align 8
  %183 = getelementptr inbounds %struct.utp_stream_info_t, ptr %182, i32 0, i32 2
  store ptr %181, ptr %183, align 8
  %184 = load ptr, ptr %6, align 8
  %185 = getelementptr inbounds %struct.utp_stream_info_t, ptr %184, i32 0, i32 1
  %186 = getelementptr [2 x %struct._utp_flow_t], ptr %185, i64 0, i64 1
  %187 = load ptr, ptr %6, align 8
  %188 = getelementptr inbounds %struct.utp_stream_info_t, ptr %187, i32 0, i32 3
  store ptr %186, ptr %188, align 8
  br label %200

189:                                              ; preds = %175
  %190 = load ptr, ptr %6, align 8
  %191 = getelementptr inbounds %struct.utp_stream_info_t, ptr %190, i32 0, i32 1
  %192 = getelementptr [2 x %struct._utp_flow_t], ptr %191, i64 0, i64 1
  %193 = load ptr, ptr %6, align 8
  %194 = getelementptr inbounds %struct.utp_stream_info_t, ptr %193, i32 0, i32 2
  store ptr %192, ptr %194, align 8
  %195 = load ptr, ptr %6, align 8
  %196 = getelementptr inbounds %struct.utp_stream_info_t, ptr %195, i32 0, i32 1
  %197 = getelementptr [2 x %struct._utp_flow_t], ptr %196, i64 0, i64 0
  %198 = load ptr, ptr %6, align 8
  %199 = getelementptr inbounds %struct.utp_stream_info_t, ptr %198, i32 0, i32 3
  store ptr %197, ptr %199, align 8
  br label %200

200:                                              ; preds = %189, %178
  %201 = load ptr, ptr %6, align 8
  ret ptr %201
}