; Function Attrs: nounwind uwtable
define internal fastcc ptr @get_utp_stream_info(ptr noundef %0, ptr noundef readonly captures(none) %1) unnamed_addr #0 {
  %3 = getelementptr inbounds nuw i8, ptr %1, i64 4
  %4 = load i32, ptr %3, align 4
  %.not = icmp eq i32 %4, 0
  %5 = getelementptr inbounds nuw i8, ptr %1, i64 8
  %6 = load i32, ptr %5, align 8
  %7 = add i32 %6, 1
  %8 = add i32 %6, -1
  %9 = and i32 %7, 65535
  %10 = add i32 %6, 65535
  %11 = and i32 %10, 65535
  %.060 = select i1 %.not, i32 %9, i32 %7
  %.059 = select i1 %.not, i32 %11, i32 %8
  %12 = load i8, ptr %1, align 8
  %13 = icmp eq i8 %12, 4
  %14 = getelementptr inbounds nuw i8, ptr %0, i64 20
  %15 = load i32, ptr %14, align 4
  %16 = getelementptr inbounds nuw i8, ptr %0, i64 208
  %17 = getelementptr inbounds nuw i8, ptr %0, i64 232
  br i1 %13, label %18, label %25

18:                                               ; preds = %2
  %19 = tail call ptr @find_conversation(i32 noundef %15, ptr noundef nonnull %16, ptr noundef nonnull %17, i32 noundef 30, i32 noundef %.060, i32 noundef %6, i32 noundef 0) #8
  %.not72 = icmp eq ptr %19, null
  br i1 %.not72, label %20, label %40

20:                                               ; preds = %18
  %21 = getelementptr inbounds nuw i8, ptr %1, i64 8
  %22 = load i32, ptr %14, align 4
  %23 = load i32, ptr %21, align 8
  %24 = tail call nonnull ptr @conversation_new(i32 noundef %22, ptr noundef nonnull %16, ptr noundef nonnull %17, i32 noundef 30, i32 noundef %.060, i32 noundef %23, i32 noundef 0) #8
  br label %40

25:                                               ; preds = %2
  %26 = getelementptr inbounds nuw i8, ptr %1, i64 8
  %27 = tail call ptr @find_conversation(i32 noundef %15, ptr noundef nonnull %16, ptr noundef nonnull %17, i32 noundef 30, i32 noundef %6, i32 noundef 0, i32 noundef 131072) #8
  %.not69 = icmp eq ptr %27, null
  br i1 %.not69, label %28, label %40

28:                                               ; preds = %25
  %29 = load i32, ptr %14, align 4
  %30 = load i32, ptr %26, align 8
  %31 = tail call ptr @find_conversation(i32 noundef %29, ptr noundef nonnull %16, ptr noundef nonnull %17, i32 noundef 30, i32 noundef %30, i32 noundef %.060, i32 noundef 0) #8
  %.not70 = icmp eq ptr %31, null
  br i1 %.not70, label %32, label %40

32:                                               ; preds = %28
  %33 = load i32, ptr %14, align 4
  %34 = load i32, ptr %26, align 8
  %35 = tail call ptr @find_conversation(i32 noundef %33, ptr noundef nonnull %16, ptr noundef nonnull %17, i32 noundef 30, i32 noundef %34, i32 noundef %.059, i32 noundef 0) #8
  %.not71 = icmp eq ptr %35, null
  br i1 %.not71, label %36, label %40

36:                                               ; preds = %32
  %37 = load i32, ptr %14, align 4
  %38 = load i32, ptr %26, align 8
  %39 = tail call nonnull ptr @conversation_new(i32 noundef %37, ptr noundef nonnull %16, ptr noundef nonnull %17, i32 noundef 30, i32 noundef %38, i32 noundef 0, i32 noundef 2) #8
  br label %40

40:                                               ; preds = %25, %32, %36, %28, %18, %20
  %.062 = phi ptr [ %19, %18 ], [ %24, %20 ], [ %27, %25 ], [ %31, %28 ], [ %35, %32 ], [ %39, %36 ]
  %41 = load i32, ptr @proto_bt_utp, align 4
  %42 = tail call ptr @conversation_get_proto_data(ptr noundef nonnull %.062, i32 noundef %41) #8
  %.not73 = icmp eq ptr %42, null
  br i1 %.not73, label %43, label %55

43:                                               ; preds = %40
  %44 = tail call ptr @wmem_file_scope() #8
  %45 = tail call noalias ptr @wmem_alloc0(ptr noundef %44, i64 noundef 40) #8
  %46 = load i32, ptr @bt_utp_stream_count, align 4
  %47 = add i32 %46, 1
  store i32 %47, ptr @bt_utp_stream_count, align 4
  store i32 %46, ptr %45, align 8
  %48 = tail call ptr @wmem_file_scope() #8
  %49 = tail call noalias ptr @wmem_tree_new(ptr noundef %48) #8
  %50 = getelementptr inbounds nuw i8, ptr %45, i64 8
  store ptr %49, ptr %50, align 8
  %51 = tail call ptr @wmem_file_scope() #8
  %52 = tail call noalias ptr @wmem_tree_new(ptr noundef %51) #8
  %53 = getelementptr i8, ptr %45, i64 16
  store ptr %52, ptr %53, align 8
  %54 = load i32, ptr @proto_bt_utp, align 4
  tail call void @conversation_add_proto_data(ptr noundef nonnull %.062, i32 noundef %54, ptr noundef nonnull %45) #8
  br label %55

55:                                               ; preds = %43, %40
  %.061 = phi ptr [ %42, %40 ], [ %45, %43 ]
  %56 = getelementptr inbounds nuw i8, ptr %0, i64 208
  %57 = getelementptr inbounds nuw i8, ptr %0, i64 232
  %58 = load i32, ptr %56, align 8
  %59 = load i32, ptr %57, align 8
  %60 = icmp sgt i32 %58, %59
  br i1 %60, label %.thread, label %61

61:                                               ; preds = %55
  %62 = icmp slt i32 %58, %59
  br i1 %62, label %.thread78, label %63

63:                                               ; preds = %61
  %64 = getelementptr inbounds nuw i8, ptr %0, i64 212
  %65 = load i32, ptr %64, align 4
  %66 = getelementptr inbounds nuw i8, ptr %0, i64 236
  %67 = load i32, ptr %66, align 4
  %68 = icmp sgt i32 %65, %67
  br i1 %68, label %.thread, label %69

69:                                               ; preds = %63
  %70 = icmp slt i32 %65, %67
  br i1 %70, label %.thread78, label %71

71:                                               ; preds = %69
  %72 = icmp eq i32 %65, 0
  br i1 %72, label %cmp_address.exit.thread75, label %cmp_address.exit

cmp_address.exit:                                 ; preds = %71
  %73 = getelementptr inbounds nuw i8, ptr %0, i64 216
  %74 = load ptr, ptr %73, align 8
  %75 = getelementptr inbounds nuw i8, ptr %0, i64 240
  %76 = load ptr, ptr %75, align 8
  %77 = sext i32 %65 to i64
  %78 = tail call i32 @memcmp(ptr noundef %74, ptr noundef %76, i64 noundef %77) #11
  %79 = icmp eq i32 %78, 0
  br i1 %79, label %cmp_address.exit.thread75, label %cmp_address.exit.thread

cmp_address.exit.thread75:                        ; preds = %71, %cmp_address.exit
  %80 = getelementptr inbounds nuw i8, ptr %0, i64 284
  %81 = load i32, ptr %80, align 4
  %82 = getelementptr inbounds nuw i8, ptr %0, i64 288
  %83 = load i32, ptr %82, align 8
  %84 = icmp ugt i32 %81, %83
  br i1 %84, label %.thread, label %.thread78

cmp_address.exit.thread:                          ; preds = %cmp_address.exit
  %85 = icmp sgt i32 %78, -1
  br i1 %85, label %.thread, label %.thread78

.thread:                                          ; preds = %55, %63, %cmp_address.exit.thread75, %cmp_address.exit.thread
  %86 = getelementptr inbounds nuw i8, ptr %.061, i64 8
  %87 = getelementptr inbounds nuw i8, ptr %.061, i64 24
  store ptr %86, ptr %87, align 8
  %88 = getelementptr i8, ptr %.061, i64 16
  br label %92

.thread78:                                        ; preds = %61, %69, %cmp_address.exit.thread75, %cmp_address.exit.thread
  %89 = getelementptr inbounds nuw i8, ptr %.061, i64 8
  %90 = getelementptr i8, ptr %.061, i64 16
  %91 = getelementptr inbounds nuw i8, ptr %.061, i64 24
  store ptr %90, ptr %91, align 8
  br label %92

92:                                               ; preds = %.thread78, %.thread
  %.sink = phi ptr [ %89, %.thread78 ], [ %88, %.thread ]
  %93 = getelementptr inbounds nuw i8, ptr %.061, i64 32
  store ptr %.sink, ptr %93, align 8
  ret ptr %.061
}